(lp0
F0.12393162393162394
aF0.10963455149501661
aF0.02040816326530612
aF0.014423076923076924
aF0.003436426116838488
aF0.11016949152542373
aF0.015151515151515152
aF0.0688622754491018
aF0.05249343832020997
aF0.02912621359223301
aF0.08664259927797834
aF0.07211538461538461
aF0.1411764705882353
aF0.017006802721088437
aF0.027888446215139442
aF0.12979351032448377
aF0.1111111111111111
aF0.10138248847926268
aF0.010362694300518135
aF0.05319148936170213
aF0.0473186119873817
aF0.0163265306122449
aF0.04487179487179487
aF0.0
aF0.2578616352201258
aF0.011299435028248588
aF0.02631578947368421
aF0.08670520231213873
aF0.007042253521126761
aF0.027131782945736434
aF0.0
aF0.003816793893129771
aF0.0136986301369863
aF0.04897959183673469
aF0.012195121951219513
aF0.06912442396313365
aF0.05327868852459016
aF0.17307692307692307
aF0.11170212765957446
aF0.041666666666666664
aF0.019444444444444445
aF0.022792022792022793
aF0.07482993197278912
aF0.05555555555555555
aF0.012
aF0.005249343832020997
aF0.007352941176470588
aF0.06372549019607843
aF0.0
aF0.004694835680751174
aF0.013201320132013201
aF0.020338983050847456
aF0.0
aF0.046875
aF0.0
aF0.05078125
aF0.5256410256410257
aF0.03666666666666667
aF0.024390243902439025
aF0.04081632653061224
aF0.047244094488188976
aF0.013114754098360656
aF0.05741626794258373
aF0.08609271523178808
aF0.03345724907063197
aF0.14979757085020243
aF0.007662835249042145
aF0.033707865168539325
aF0.0176678445229682
aF0.09904153354632587
aF0.047244094488188976
aF0.024539877300613498
aF0.02278481012658228
aF0.022123893805309734
aF0.021739130434782608
aF0.04964539007092199
aF0.06424581005586592
aF0.0
aF0.025889967637540454
aF0.05154639175257732
aF0.0033222591362126247
aF0.07692307692307693
aF0.057971014492753624
aF0.0873015873015873
aF0.05092592592592592
aF0.06415094339622641
aF0.03614457831325301
aF0.00784313725490196
aF0.05714285714285714
aF0.038461538461538464
aF0.06115107913669065
aF0.08270676691729323
aF0.01929260450160772
aF0.024
aF0.08732394366197183
aF0.014545454545454545
aF0.024390243902439025
aF0.02830188679245283
aF0.020338983050847456
aF0.011363636363636364
aF0.039285714285714285
aF0.11143695014662756
aF0.0975609756097561
aF0.024691358024691357
aF0.08421052631578947
aF0.012012012012012012
aF0.05454545454545454
aF0.02711864406779661
aF0.040160642570281124
aF0.09737827715355805
aF0.017191977077363897
aF0.030864197530864196
aF0.020833333333333332
aF0.03292181069958848
aF0.058823529411764705
aF0.006802721088435374
aF0.031088082901554404
aF0.060810810810810814
aF0.004310344827586207
aF0.03225806451612903
aF0.044444444444444446
aF0.04672897196261682
aF0.026525198938992044
aF0.011494252873563218
aF0.05058365758754864
aF0.06278026905829596
aF0.05154639175257732
aF0.02040816326530612
aF0.2171945701357466
aF0.007042253521126761
aF0.06578947368421052
aF0.0
aF0.017191977077363897
aF0.006535947712418301
aF0.0121580547112462
aF0.019417475728155338
aF0.02922077922077922
aF0.019662921348314606
aF0.006172839506172839
aF0.007142857142857143
aF0.02074688796680498
aF0.056
aF0.025089605734767026
aF0.01762114537444934
aF0.006289308176100629
aF0.007905138339920948
aF0.0038022813688212928
aF0.06770833333333333
aF0.04281345565749235
aF0.05737704918032787
aF0.047619047619047616
aF0.021220159151193633
aF0.03757225433526012
aF0.14285714285714285
aF0.011450381679389313
aF0.016286644951140065
aF0.04609929078014184
aF0.008645533141210375
aF0.0026666666666666666
aF0.018518518518518517
aF0.041666666666666664
aF0.005
aF0.022988505747126436
aF0.015267175572519083
aF0.0
aF0.009174311926605505
aF0.034482758620689655
aF0.2690909090909091
aF0.016835016835016835
aF0.0
aF0.05329153605015674
aF0.004889975550122249
aF0.011811023622047244
aF0.046610169491525424
aF0.00980392156862745
aF0.011152416356877323
aF0.038461538461538464
aF0.19730941704035873
aF0.0070921985815602835
aF0.03619909502262444
aF0.08333333333333333
aF0.01675977653631285
aF0.0033112582781456954
aF0.006622516556291391
aF0.02608695652173913
aF0.021052631578947368
aF0.0
aF0.07142857142857142
aF0.03076923076923077
aF0.021505376344086023
aF0.06578947368421052
aF0.024630541871921183
aF0.009836065573770493
aF0.0
aF0.007246376811594203
aF0.026490066225165563
aF0.022988505747126436
aF0.06569343065693431
aF0.0
aF0.02464788732394366
aF0.04240282685512368
aF0.031331592689295036
aF0.054945054945054944
aF0.17560975609756097
aF0.17666666666666667
aF0.37438423645320196
aF0.0313588850174216
aF0.0041841004184100415
aF0.009009009009009009
aF0.018867924528301886
aF0.0547945205479452
aF0.0189873417721519
aF0.06862745098039216
aF0.033210332103321034
aF0.060085836909871244
aF0.19879518072289157
aF0.018796992481203006
aF0.051829268292682924
aF0.06432748538011696
aF0.16153846153846155
aF0.05396825396825397
aF0.009852216748768473
aF0.010582010582010581
aF0.10606060606060606
aF0.07835820895522388
aF0.011904761904761904
aF0.1111111111111111
aF0.05405405405405406
aF0.047872340425531915
aF0.017361111111111112
aF0.0683453237410072
aF0.025806451612903226
aF0.01639344262295082
aF0.003861003861003861
aF0.0
aF0.02631578947368421
aF0.0
aF0.003875968992248062
aF0.046632124352331605
aF0.033707865168539325
aF0.008583690987124463
aF0.04591836734693878
aF0.028169014084507043
aF0.060836501901140684
aF0.04697986577181208
aF0.0811965811965812
aF0.010948905109489052
aF0.5132743362831859
aF0.02054794520547945
aF0.05825242718446602
aF0.102880658436214
aF0.022292993630573247
aF0.03571428571428571
aF0.010380622837370242
aF0.013888888888888888
aF0.06707317073170732
aF0.01020408163265306
aF0.03187250996015936
aF0.025
aF0.04979253112033195
aF0.012048192771084338
aF0.10112359550561797
aF0.05574912891986063
aF0.023333333333333334
aF0.019011406844106463
aF0.025
aF0.006896551724137931
aF0.09740259740259741
aF0.030434782608695653
aF0.019662921348314606
aF0.18045112781954886
aF0.07207207207207207
aF0.07009345794392523
aF0.0035842293906810036
aF0.035555555555555556
aF0.007462686567164179
aF0.029850746268656716
aF0.02512562814070352
aF0.0
aF0.0176678445229682
aF0.050595238095238096
aF0.04035874439461883
aF0.02262443438914027
aF0.021367521367521368
aF0.008032128514056224
aF0.04482758620689655
aF0.0
aF0.03365384615384615
aF0.0
aF0.01639344262295082
aF0.06220095693779904
aF0.1103448275862069
aF0.009259259259259259
aF0.0078125
aF0.09486166007905138
aF0.0858085808580858
aF0.04929577464788732
aF0.031578947368421054
aF0.011450381679389313
aF0.017804154302670624
aF0.05025125628140704
aF0.028169014084507043
aF0.015873015873015872
aF0.007380073800738007
aF0.007434944237918215
aF0.01764705882352941
aF0.05782312925170068
aF0.2181208053691275
aF0.05755395683453238
aF0.007326007326007326
aF0.06832298136645963
aF0.05128205128205128
aF0.03524229074889868
aF0.03519061583577713
aF0.034482758620689655
aF0.04198473282442748
aF0.0033222591362126247
aF0.00796812749003984
aF0.010452961672473868
aF0.0033222591362126247
aF0.026470588235294117
aF0.08454810495626822
aF0.06418918918918919
aF0.03225806451612903
aF0.06442577030812324
aF0.014124293785310734
aF0.009433962264150943
aF0.007832898172323759
aF0.0032679738562091504
aF0.02867383512544803
aF0.0
aF0.006622516556291391
aF0.016181229773462782
aF0.012345679012345678
aF0.020080321285140562
aF0.010582010582010581
aF0.0
aF0.03666666666666667
aF0.05
aF0.017094017094017096
aF0.024193548387096774
aF0.10802469135802469
aF0.11914893617021277
aF0.059233449477351915
aF0.015625
aF0.07114624505928854
aF0.028368794326241134
aF0.00847457627118644
aF0.009433962264150943
aF0.02666666666666667
aF0.0392156862745098
aF0.01818181818181818
aF0.037383177570093455
aF0.0
aF0.015723270440251572
aF0.044
aF0.015384615384615385
aF0.009708737864077669
aF0.005154639175257732
aF0.30078125
aF0.038461538461538464
aF0.004219409282700422
aF0.08156028368794327
aF0.040268456375838924
aF0.08595988538681948
aF0.09090909090909091
aF0.20567375886524822
aF0.056074766355140186
aF0.04744525547445255
aF0.08130081300813008
aF0.055776892430278883
aF0.00392156862745098
aF0.0199203187250996
aF0.013605442176870748
aF0.0125
aF0.07236842105263158
aF0.06130268199233716
aF0.012195121951219513
aF0.058394160583941604
aF0.0058823529411764705
aF0.08835341365461848
aF0.0
aF0.0064516129032258064
aF0.028391167192429023
aF0.08542713567839195
aF0.09865470852017937
aF0.021052631578947368
aF0.04524886877828054
aF0.041666666666666664
aF0.007194244604316547
aF0.05333333333333334
aF0.08360128617363344
aF0.014705882352941176
aF0.01675977653631285
aF0.029940119760479042
aF0.016736401673640166
aF0.010050251256281407
aF0.02821316614420063
aF0.015384615384615385
aF0.013029315960912053
aF0.030303030303030304
aF0.00303951367781155
aF0.02348993288590604
aF0.05286343612334802
aF0.03206997084548105
aF0.03773584905660377
aF0.033003300330033
aF0.045283018867924525
aF0.05952380952380952
aF0.025830258302583026
aF0.018404907975460124
aF0.014234875444839857
aF0.03461538461538462
aF0.10185185185185185
aF0.007194244604316547
aF0.01904761904761905
aF0.0196078431372549
aF0.019736842105263157
aF0.029914529914529916
aF0.025735294117647058
aF0.024242424242424242
aF0.035830618892508145
aF0.0411522633744856
aF0.0
aF0.14728682170542637
aF0.13095238095238096
aF0.11070110701107011
aF0.017857142857142856
aF0.09090909090909091
aF0.27403846153846156
aF0.03333333333333333
aF0.003289473684210526
aF0.15639810426540285
aF0.02459016393442623
aF0.00967741935483871
aF0.029556650246305417
aF0.04424778761061947
aF0.10512820512820513
aF0.11029411764705882
aF0.006944444444444444
aF0.016556291390728478
aF0.03968253968253968
aF0.01948051948051948
aF0.02197802197802198
aF0.04953560371517028
aF0.14393939393939395
aF0.05963302752293578
aF0.006872852233676976
aF0.08917197452229299
aF0.01171875
aF0.060085836909871244
aF0.027906976744186046
aF0.026022304832713755
aF0.024128686327077747
aF0.05263157894736842
aF0.029850746268656716
aF0.007194244604316547
aF0.022082018927444796
aF0.050387596899224806
aF0.033582089552238806
aF0.013966480446927373
aF0.007518796992481203
aF0.11297071129707113
aF0.009174311926605505
aF0.009174311926605505
aF0.04790419161676647
aF0.060836501901140684
aF0.14545454545454545
aF0.033112582781456956
aF0.017857142857142856
aF0.026845637583892617
aF0.046875
aF0.020618556701030927
aF0.015337423312883436
aF0.0223463687150838
aF0.041379310344827586
aF0.011363636363636364
aF0.005763688760806916
aF0.025236593059936908
aF0.010498687664041995
aF0.08955223880597014
aF0.02066115702479339
aF0.028125
aF0.09722222222222222
aF0.022222222222222223
aF0.027692307692307693
aF0.022222222222222223
aF0.12558139534883722
aF0.022304832713754646
aF0.026022304832713755
aF0.048484848484848485
aF0.01171875
aF0.033112582781456956
aF0.03461538461538462
aF0.025714285714285714
aF0.02617801047120419
aF0.0
aF0.03937007874015748
aF0.07973421926910298
aF0.008955223880597015
aF0.09328358208955224
aF0.031007751937984496
aF0.0
aF0.05405405405405406
aF0.026415094339622643
aF0.1836734693877551
aF0.006779661016949152
aF0.025380710659898477
aF0.05993690851735016
aF0.02005730659025788
aF0.008695652173913044
aF0.0
aF0.017543859649122806
aF0.009345794392523364
aF0.005555555555555556
aF0.0243161094224924
aF0.03081232492997199
aF0.03546099290780142
aF0.04784688995215311
aF0.11450381679389313
aF0.012578616352201259
aF0.00546448087431694
aF0.05652173913043478
aF0.026143790849673203
aF0.02
aF0.039647577092511016
aF0.055944055944055944
aF0.039568345323741004
aF0.014749262536873156
aF0.11836734693877551
aF0.01282051282051282
aF0.02040816326530612
aF0.8081395348837209
aF0.05761316872427984
aF0.03910614525139665
aF0.0321285140562249
aF0.016181229773462782
aF0.034782608695652174
aF0.0034482758620689655
aF0.013245033112582781
aF0.12152777777777778
aF0.07103825136612021
aF0.053811659192825115
aF0.01858736059479554
aF0.024154589371980676
aF0.0
aF0.06015037593984962
aF0.04608294930875576
aF0.00847457627118644
aF0.11969111969111969
aF0.031446540880503145
aF0.0
aF0.08960573476702509
aF0.0
aF0.052
aF0.20912547528517111
aF0.12468193384223919
aF0.17408906882591094
aF0.11442786069651742
aF0.08290155440414508
aF0.030927835051546393
aF0.04784688995215311
aF0.014285714285714285
aF0.030508474576271188
aF0.04057971014492753
aF0.0029940119760479044
aF0.0410958904109589
aF0.0
aF0.04956268221574344
aF0.014652014652014652
aF0.057057057057057055
aF0.08417508417508418
aF0.14339622641509434
aF0.062111801242236024
aF0.011494252873563218
aF0.022026431718061675
aF0.0036363636363636364
aF0.024096385542168676
aF0.030120481927710843
aF0.05555555555555555
aF0.055
aF0.02622950819672131
aF0.029069767441860465
aF0.0035587188612099642
aF0.04
aF0.010050251256281407
aF0.021897810218978103
aF0.008298755186721992
aF0.075
aF0.04498269896193772
aF0.002890173410404624
aF0.012448132780082987
aF0.007142857142857143
aF0.02040816326530612
aF0.006920415224913495
aF0.006024096385542169
aF0.10975609756097561
aF0.042682926829268296
aF0.03146853146853147
aF0.029045643153526972
aF0.028409090909090908
aF0.06506849315068493
aF0.08421052631578947
aF0.008695652173913044
aF0.1696969696969697
aF0.03501945525291829
aF0.0176678445229682
aF0.02032520325203252
aF0.0223463687150838
aF0.0
aF0.005434782608695652
aF0.17391304347826086
aF0.040892193308550186
aF0.014184397163120567
aF0.25382262996941896
aF0.025362318840579712
aF0.1027190332326284
aF0.04263565891472868
aF0.029288702928870293
aF0.07661290322580645
aF0.051470588235294115
aF0.19205298013245034
aF0.0
aF0.04081632653061224
aF0.0027472527472527475
aF0.009375
aF0.004273504273504274
aF0.022388059701492536
aF0.008287292817679558
aF0.028846153846153848
aF0.0221606648199446
aF0.0664819944598338
aF0.003048780487804878
aF0.05964912280701754
aF0.11036789297658862
aF0.03481012658227848
aF0.015267175572519083
aF0.0
aF0.04455445544554455
aF0.06461538461538462
aF0.02631578947368421
aF0.03943661971830986
aF0.05357142857142857
aF0.04516129032258064
aF0.046703296703296704
aF0.0
aF0.003134796238244514
aF0.06415094339622641
aF0.09776536312849161
aF0.06172839506172839
aF0.11619718309859155
aF0.028112449799196786
aF0.10610079575596817
aF0.003205128205128205
aF0.006993006993006993
aF0.020491803278688523
aF0.08490566037735849
aF0.022388059701492536
aF0.06666666666666667
aF0.028037383177570093
aF0.08012820512820513
aF0.012345679012345678
aF0.007462686567164179
aF0.014749262536873156
aF0.008888888888888889
aF0.0045871559633027525
aF0.017543859649122806
aF0.017391304347826087
aF0.03323262839879154
aF0.013215859030837005
aF0.0
aF0.009708737864077669
aF0.003246753246753247
aF0.13651877133105803
aF0.032490974729241874
aF0.011428571428571429
aF0.00949367088607595
aF0.013157894736842105
aF0.07627118644067797
aF0.0
aF0.0
aF0.045454545454545456
aF0.007874015748031496
aF0.029411764705882353
aF0.029411764705882353
aF0.012345679012345678
aF0.006944444444444444
aF0.061124694376528114
aF0.004524886877828055
aF0.019230769230769232
aF0.05501618122977346
aF0.0058823529411764705
a.