(lp0
F0.13675213675213677
aF0.0664451827242525
aF0.09329446064139942
aF0.0673076923076923
aF0.03436426116838488
aF0.1384180790960452
aF0.05454545454545454
aF0.19161676646706588
aF0.06299212598425197
aF0.022653721682847898
aF0.296028880866426
aF0.11057692307692307
aF0.18529411764705883
aF0.08843537414965986
aF0.06374501992031872
aF0.16224188790560473
aF0.1728395061728395
aF0.45161290322580644
aF0.05699481865284974
aF0.0851063829787234
aF0.03785488958990536
aF0.036734693877551024
aF0.07371794871794872
aF0.016891891891891893
aF0.27672955974842767
aF0.07062146892655367
aF0.07894736842105263
aF0.23121387283236994
aF0.056338028169014086
aF0.04263565891472868
aF0.011764705882352941
aF0.026717557251908396
aF0.02054794520547945
aF0.07346938775510205
aF0.036585365853658534
aF0.10138248847926268
aF0.1721311475409836
aF0.1346153846153846
aF0.3882978723404255
aF0.11666666666666667
aF0.03611111111111111
aF0.022792022792022793
aF0.05442176870748299
aF0.07575757575757576
aF0.064
aF0.0026246719160104987
aF0.0
aF0.18137254901960784
aF0.0182648401826484
aF0.009389671361502348
aF0.0297029702970297
aF0.023728813559322035
aF0.020134228187919462
aF0.0625
aF0.03286384976525822
aF0.08203125
aF0.6068376068376068
aF0.04
aF0.08292682926829269
aF0.08673469387755102
aF0.05905511811023622
aF0.006557377049180328
aF0.22488038277511962
aF0.09933774834437085
aF0.09665427509293681
aF0.14979757085020243
aF0.05363984674329502
aF0.0449438202247191
aF0.014134275618374558
aF0.08945686900958466
aF0.06692913385826772
aF0.03067484662576687
aF0.0759493670886076
aF0.14601769911504425
aF0.10507246376811594
aF0.19858156028368795
aF0.07541899441340782
aF0.011111111111111112
aF0.11326860841423948
aF0.1958762886597938
aF0.006644518272425249
aF0.15384615384615385
aF0.043478260869565216
aF0.25396825396825395
aF0.041666666666666664
aF0.04905660377358491
aF0.05421686746987952
aF0.047058823529411764
aF0.07755102040816327
aF0.125
aF0.0539568345323741
aF0.041353383458646614
aF0.10289389067524116
aF0.032
aF0.3183098591549296
aF0.025454545454545455
aF0.02981029810298103
aF0.04245283018867924
aF0.08813559322033898
aF0.015151515151515152
aF0.060714285714285714
aF0.2404692082111437
aF0.34959349593495936
aF0.021604938271604937
aF0.07017543859649122
aF0.04804804804804805
aF0.16363636363636364
aF0.03389830508474576
aF0.04819277108433735
aF0.1198501872659176
aF0.09742120343839542
aF0.021604938271604937
aF0.06944444444444445
aF0.04526748971193416
aF0.19934640522875818
aF0.006802721088435374
aF0.06735751295336788
aF0.0472972972972973
aF0.04310344827586207
aF0.1111111111111111
aF0.1111111111111111
aF0.04672897196261682
aF0.029177718832891247
aF0.019157088122605363
aF0.14785992217898833
aF0.10762331838565023
aF0.08762886597938144
aF0.04591836734693878
aF0.3438914027149321
aF0.056338028169014086
aF0.05263157894736842
aF0.02564102564102564
aF0.02005730659025788
aF0.026143790849673203
aF0.0243161094224924
aF0.02912621359223301
aF0.07792207792207792
aF0.05056179775280899
aF0.018518518518518517
aF0.05357142857142857
aF0.016597510373443983
aF0.088
aF0.13978494623655913
aF0.1145374449339207
aF0.018867924528301886
aF0.11462450592885376
aF0.049429657794676805
aF0.13541666666666666
aF0.16819571865443425
aF0.1557377049180328
aF0.12244897959183673
aF0.015915119363395226
aF0.06936416184971098
aF0.1392857142857143
aF0.04961832061068702
aF0.009771986970684038
aF0.04609929078014184
aF0.043227665706051875
aF0.018666666666666668
aF0.06172839506172839
aF0.08974358974358974
aF0.035
aF0.05172413793103448
aF0.020356234096692113
aF0.015463917525773196
aF0.06422018348623854
aF0.034482758620689655
aF0.45454545454545453
aF0.013468013468013467
aF0.06875
aF0.16300940438871472
aF0.0
aF0.031496062992125984
aF0.17796610169491525
aF0.08169934640522876
aF0.007434944237918215
aF0.14102564102564102
aF0.17937219730941703
aF0.0425531914893617
aF0.1085972850678733
aF0.03787878787878788
aF0.07262569832402235
aF0.009933774834437087
aF0.029801324503311258
aF0.1536231884057971
aF0.10175438596491228
aF0.011527377521613832
aF0.44642857142857145
aF0.03461538461538462
aF0.0931899641577061
aF0.16447368421052633
aF0.10344827586206896
aF0.03278688524590164
aF0.035
aF0.021739130434782608
aF0.039735099337748346
aF0.011494252873563218
aF0.20072992700729927
aF0.030042918454935622
aF0.07042253521126761
aF0.15547703180212014
aF0.08616187989556136
aF0.16117216117216118
aF0.21951219512195122
aF0.15333333333333332
aF0.35960591133004927
aF0.041811846689895474
aF0.008368200836820083
aF0.05405405405405406
aF0.03459119496855346
aF0.1324200913242009
aF0.022151898734177215
aF0.11764705882352941
aF0.025830258302583026
aF0.060085836909871244
aF0.2680722891566265
aF0.07142857142857142
aF0.1798780487804878
aF0.15789473684210525
aF0.1576923076923077
aF0.025396825396825397
aF0.04926108374384237
aF0.042328042328042326
aF0.09090909090909091
aF0.30970149253731344
aF0.011904761904761904
aF0.34074074074074073
aF0.20270270270270271
aF0.10106382978723404
aF0.09375
aF0.09352517985611511
aF0.035483870967741936
aF0.019672131147540985
aF0.015444015444015444
aF0.015873015873015872
aF0.15789473684210525
aF0.046875
aF0.023255813953488372
aF0.10362694300518134
aF0.04119850187265917
aF0.02575107296137339
aF0.04591836734693878
aF0.04929577464788732
aF0.08365019011406843
aF0.06711409395973154
aF0.14957264957264957
aF0.040145985401459854
aF0.46017699115044247
aF0.030821917808219176
aF0.1262135922330097
aF0.12345679012345678
aF0.01910828025477707
aF0.15714285714285714
aF0.010380622837370242
aF0.03888888888888889
aF0.04878048780487805
aF0.030612244897959183
aF0.08764940239043825
aF0.08333333333333333
aF0.35684647302904565
aF0.014457831325301205
aF0.10112359550561797
aF0.0627177700348432
aF0.05333333333333334
aF0.053231939163498096
aF0.05
aF0.034482758620689655
aF0.36363636363636365
aF0.1391304347826087
aF0.056179775280898875
aF0.16165413533834586
aF0.1891891891891892
aF0.2616822429906542
aF0.03225806451612903
aF0.09333333333333334
aF0.014925373134328358
aF0.04477611940298507
aF0.035175879396984924
aF0.04150943396226415
aF0.0636042402826855
aF0.041666666666666664
aF0.04932735426008968
aF0.08597285067873303
aF0.038461538461538464
aF0.0321285140562249
aF0.041379310344827586
aF0.03296703296703297
aF0.057692307692307696
aF0.046875
aF0.03278688524590164
aF0.05263157894736842
aF0.1
aF0.04938271604938271
aF0.0703125
aF0.08300395256916997
aF0.3432343234323432
aF0.1619718309859155
aF0.05263157894736842
aF0.026717557251908396
aF0.06824925816023739
aF0.05025125628140704
aF0.056338028169014086
aF0.0380952380952381
aF0.033210332103321034
aF0.007434944237918215
aF0.06862745098039216
aF0.03741496598639456
aF0.12080536912751678
aF0.17985611510791366
aF0.01098901098901099
aF0.07453416149068323
aF0.05128205128205128
aF0.02643171806167401
aF0.017595307917888565
aF0.01293103448275862
aF0.022900763358778626
aF0.016611295681063124
aF0.01195219123505976
aF0.0313588850174216
aF0.019933554817275746
aF0.08529411764705883
aF0.19825072886297376
aF0.07094594594594594
aF0.025089605734767026
aF0.21008403361344538
aF0.011299435028248588
aF0.0440251572327044
aF0.03655352480417755
aF0.00980392156862745
aF0.021505376344086023
aF0.020905923344947737
aF0.019867549668874173
aF0.006472491909385114
aF0.009259259259259259
aF0.07630522088353414
aF0.09523809523809523
aF0.01652892561983471
aF0.04
aF0.07272727272727272
aF0.07264957264957266
aF0.04032258064516129
aF0.38271604938271603
aF0.08085106382978724
aF0.05574912891986063
aF0.040625
aF0.10276679841897234
aF0.15602836879432624
aF0.07627118644067797
aF0.012578616352201259
aF0.09666666666666666
aF0.13071895424836602
aF0.02909090909090909
aF0.10747663551401869
aF0.0
aF0.0220125786163522
aF0.028
aF0.06923076923076923
aF0.06796116504854369
aF0.010309278350515464
aF0.375
aF0.2076923076923077
aF0.012658227848101266
aF0.1453900709219858
aF0.14429530201342283
aF0.06017191977077364
aF0.09486166007905138
aF0.11347517730496454
aF0.056074766355140186
aF0.0364963503649635
aF0.032520325203252036
aF0.08764940239043825
aF0.0196078431372549
aF0.03187250996015936
aF0.05442176870748299
aF0.058333333333333334
aF0.05921052631578947
aF0.08812260536398467
aF0.018292682926829267
aF0.23357664233576642
aF0.0
aF0.23293172690763053
aF0.02849002849002849
aF0.00967741935483871
aF0.07570977917981073
aF0.20100502512562815
aF0.39461883408071746
aF0.1368421052631579
aF0.10407239819004525
aF0.013888888888888888
aF0.03597122302158273
aF0.12666666666666668
aF0.07717041800643087
aF0.125
aF0.09497206703910614
aF0.11976047904191617
aF0.07531380753138076
aF0.06030150753768844
aF0.05956112852664577
aF0.015384615384615385
aF0.048859934853420196
aF0.041666666666666664
aF0.0
aF0.087248322147651
aF0.048458149779735685
aF0.16034985422740525
aF0.02830188679245283
aF0.0165016501650165
aF0.04905660377358491
aF0.07936507936507936
aF0.02952029520295203
aF0.03374233128834356
aF0.05338078291814947
aF0.03076923076923077
aF0.1111111111111111
aF0.02877697841726619
aF0.07936507936507936
aF0.07058823529411765
aF0.046052631578947366
aF0.08547008547008547
aF0.03676470588235294
aF0.08484848484848485
aF0.11726384364820847
aF0.06995884773662552
aF0.03867403314917127
aF0.18604651162790697
aF0.1111111111111111
aF0.3247232472324723
aF0.041666666666666664
aF0.10101010101010101
aF0.1875
aF0.0
aF0.013157894736842105
aF0.10900473933649289
aF0.04918032786885246
aF0.03225806451612903
aF0.03940886699507389
aF0.11946902654867257
aF0.36923076923076925
aF0.18872549019607843
aF0.0
aF0.023178807947019868
aF0.03571428571428571
aF0.07792207792207792
aF0.14285714285714285
aF0.13622291021671826
aF0.36742424242424243
aF0.1559633027522936
aF0.054982817869415807
aF0.10828025477707007
aF0.05859375
aF0.2832618025751073
aF0.04186046511627907
aF0.06691449814126393
aF0.021447721179624665
aF0.05263157894736842
aF0.023880597014925373
aF0.0539568345323741
aF0.0694006309148265
aF0.07751937984496124
aF0.029850746268656716
aF0.01675977653631285
aF0.06766917293233082
aF0.12552301255230125
aF0.009174311926605505
aF0.013761467889908258
aF0.16766467065868262
aF0.057034220532319393
aF0.12727272727272726
aF0.1390728476821192
aF0.017857142857142856
aF0.12080536912751678
aF0.140625
aF0.044673539518900345
aF0.05828220858895705
aF0.09497206703910614
aF0.10344827586206896
aF0.09659090909090909
aF0.0345821325648415
aF0.006309148264984227
aF0.03937007874015748
aF0.19029850746268656
aF0.08264462809917356
aF0.040625
aF0.11805555555555555
aF0.022222222222222223
aF0.021538461538461538
aF0.025925925925925925
aF0.14883720930232558
aF0.07806691449814127
aF0.08921933085501858
aF0.06363636363636363
aF0.03125
aF0.03642384105960265
aF0.038461538461538464
aF0.022857142857142857
aF0.020942408376963352
aF0.0
aF0.14566929133858267
aF0.12624584717607973
aF0.05373134328358209
aF0.041044776119402986
aF0.16279069767441862
aF0.0
aF0.04864864864864865
aF0.1018867924528302
aF0.8979591836734694
aF0.013559322033898305
aF0.07614213197969544
aF0.050473186119873815
aF0.07163323782234957
aF0.034782608695652174
aF0.0
aF0.06315789473684211
aF0.018691588785046728
aF0.011111111111111112
aF0.015197568389057751
aF0.0896358543417367
aF0.11347517730496454
aF0.06698564593301436
aF0.1297709923664122
aF0.06289308176100629
aF0.02185792349726776
aF0.07391304347826087
aF0.0718954248366013
aF0.05
aF0.1145374449339207
aF0.16783216783216784
aF0.017985611510791366
aF0.038348082595870206
aF0.12653061224489795
aF0.0641025641025641
aF0.025510204081632654
aF0.9447674418604651
aF0.0411522633744856
aF0.0335195530726257
aF0.024096385542168676
aF0.02912621359223301
aF0.043478260869565216
aF0.020689655172413793
aF0.03642384105960265
aF0.12152777777777778
aF0.09289617486338798
aF0.19282511210762332
aF0.06691449814126393
aF0.033816425120772944
aF0.012269938650306749
aF0.041353383458646614
aF0.1152073732718894
aF0.00423728813559322
aF0.10810810810810811
aF0.03459119496855346
aF0.0
aF0.06093189964157706
aF0.04411764705882353
aF0.044
aF0.26996197718631176
aF0.07888040712468193
aF0.21052631578947367
aF0.07462686567164178
aF0.13730569948186527
aF0.03436426116838488
aF0.05263157894736842
aF0.02142857142857143
aF0.05084745762711865
aF0.06376811594202898
aF0.005988023952095809
aF0.2054794520547945
aF0.025806451612903226
aF0.15451895043731778
aF0.054945054945054944
aF0.23423423423423423
aF0.14814814814814814
aF0.17358490566037735
aF0.037267080745341616
aF0.08812260536398467
aF0.11894273127753303
aF0.007272727272727273
aF0.05220883534136546
aF0.07228915662650602
aF0.08148148148148149
aF0.065
aF0.019672131147540985
aF0.06395348837209303
aF0.028469750889679714
aF0.06857142857142857
aF0.03015075376884422
aF0.08394160583941605
aF0.016597510373443983
aF0.21
aF0.14186851211072665
aF0.02601156069364162
aF0.04149377593360996
aF0.05357142857142857
aF0.036734693877551024
aF0.020761245674740483
aF0.06626506024096386
aF0.09349593495934959
aF0.036585365853658534
aF0.15734265734265734
aF0.0995850622406639
aF0.08522727272727272
aF0.1643835616438356
aF0.12105263157894737
aF0.043478260869565216
aF0.1303030303030303
aF0.09727626459143969
aF0.02120141342756184
aF0.07317073170731707
aF0.0893854748603352
aF0.0
aF0.016304347826086956
aF0.16576086956521738
aF0.12639405204460966
aF0.04964539007092199
aF0.27522935779816515
aF0.09057971014492754
aF0.09667673716012085
aF0.050387596899224806
aF0.03347280334728033
aF0.27419354838709675
aF0.058823529411764705
aF0.1490066225165563
aF0.0365296803652968
aF0.029154518950437316
aF0.054945054945054944
aF0.015625
aF0.01282051282051282
aF0.09950248756218906
aF0.0718232044198895
aF0.05128205128205128
aF0.038781163434903045
aF0.05817174515235457
aF0.018292682926829267
aF0.10877192982456141
aF0.14381270903010032
aF0.04113924050632911
aF0.04961832061068702
aF0.0
aF0.04950495049504951
aF0.06461538461538462
aF0.015037593984962405
aF0.1295774647887324
aF0.18452380952380953
aF0.08709677419354839
aF0.054945054945054944
aF0.057057057057057055
aF0.01567398119122257
aF0.05660377358490566
aF0.10893854748603352
aF0.09259259259259259
aF0.09859154929577464
aF0.04819277108433735
aF0.11405835543766578
aF0.03205128205128205
aF0.06293706293706294
aF0.08196721311475409
aF0.0880503144654088
aF0.05223880597014925
aF0.05964912280701754
aF0.037383177570093455
aF0.05128205128205128
aF0.018518518518518517
aF0.014925373134328358
aF0.02359882005899705
aF0.0044444444444444444
aF0.009174311926605505
aF0.021052631578947368
aF0.10869565217391304
aF0.012084592145015106
aF0.05286343612334802
aF0.015503875968992248
aF0.012944983818770227
aF0.006493506493506494
aF0.21843003412969283
aF0.036101083032490974
aF0.005714285714285714
aF0.02531645569620253
aF0.013157894736842105
aF0.211864406779661
aF0.03636363636363636
aF0.058333333333333334
aF0.021212121212121213
aF0.04330708661417323
aF0.07563025210084033
aF0.09558823529411764
aF0.0823045267489712
aF0.027777777777777776
aF0.1393643031784841
aF0.013574660633484163
aF0.038461538461538464
aF0.045307443365695796
aF0.0058823529411764705
a.