(lp0
F0.15384615384615385
aF0.07973421926910298
aF0.04664723032069971
aF0.019230769230769232
aF0.027491408934707903
aF0.16666666666666666
aF0.021212121212121213
aF0.05389221556886228
aF0.09186351706036745
aF0.025889967637540454
aF0.09025270758122744
aF0.125
aF0.12941176470588237
aF0.027210884353741496
aF0.055776892430278883
aF0.13569321533923304
aF0.18518518518518517
aF0.12903225806451613
aF0.03626943005181347
aF0.0797872340425532
aF0.03785488958990536
aF0.02857142857142857
aF0.0673076923076923
aF0.010135135135135136
aF0.22012578616352202
aF0.01977401129943503
aF0.03289473684210526
aF0.08959537572254335
aF0.028169014084507043
aF0.050387596899224806
aF0.0
aF0.007633587786259542
aF0.030821917808219176
aF0.04081632653061224
aF0.027439024390243903
aF0.1152073732718894
aF0.07377049180327869
aF0.1576923076923077
aF0.16489361702127658
aF0.05
aF0.008333333333333333
aF0.039886039886039885
aF0.08843537414965986
aF0.08080808080808081
aF0.036
aF0.005249343832020997
aF0.0
aF0.058823529411764705
aF0.0182648401826484
aF0.014084507042253521
aF0.033003300330033
aF0.030508474576271188
aF0.013422818791946308
aF0.046875
aF0.004694835680751174
aF0.07421875
aF0.6495726495726496
aF0.02
aF0.06829268292682927
aF0.10714285714285714
aF0.03543307086614173
aF0.013114754098360656
aF0.08133971291866028
aF0.10596026490066225
aF0.03345724907063197
aF0.13360323886639677
aF0.022988505747126436
aF0.0749063670411985
aF0.014134275618374558
aF0.08945686900958466
aF0.07086614173228346
aF0.05828220858895705
aF0.020253164556962026
aF0.061946902654867256
aF0.018115942028985508
aF0.10638297872340426
aF0.08379888268156424
aF0.0
aF0.042071197411003236
aF0.07216494845360824
aF0.009966777408637873
aF0.17647058823529413
aF0.06280193236714976
aF0.07142857142857142
aF0.06018518518518518
aF0.07924528301886792
aF0.07530120481927711
aF0.01568627450980392
aF0.08571428571428572
aF0.038461538461538464
aF0.09712230215827339
aF0.06390977443609022
aF0.03536977491961415
aF0.008
aF0.11549295774647887
aF0.02909090909090909
aF0.03523035230352303
aF0.04716981132075472
aF0.01694915254237288
aF0.01893939393939394
aF0.06428571428571428
aF0.10263929618768329
aF0.15040650406504066
aF0.018518518518518517
aF0.07017543859649122
aF0.012012012012012012
aF0.046753246753246755
aF0.04067796610169491
aF0.060240963855421686
aF0.1647940074906367
aF0.025787965616045846
aF0.021604938271604937
aF0.013888888888888888
aF0.06584362139917696
aF0.06862745098039216
aF0.013605442176870748
aF0.02072538860103627
aF0.05405405405405406
aF0.021551724137931036
aF0.03942652329749104
aF0.04722222222222222
aF0.059190031152647975
aF0.042440318302387266
aF0.011494252873563218
aF0.05058365758754864
aF0.13004484304932734
aF0.07731958762886598
aF0.030612244897959183
aF0.3212669683257919
aF0.017605633802816902
aF0.039473684210526314
aF0.018315018315018316
aF0.02865329512893983
aF0.016339869281045753
aF0.02735562310030395
aF0.02912621359223301
aF0.045454545454545456
aF0.03089887640449438
aF0.030864197530864196
aF0.02142857142857143
aF0.029045643153526972
aF0.088
aF0.053763440860215055
aF0.07048458149779736
aF0.025157232704402517
aF0.03162055335968379
aF0.034220532319391636
aF0.057291666666666664
aF0.06116207951070336
aF0.01639344262295082
aF0.061224489795918366
aF0.021220159151193633
aF0.06936416184971098
aF0.18928571428571428
aF0.03435114503816794
aF0.013029315960912053
aF0.05673758865248227
aF0.020172910662824207
aF0.008
aF0.024691358024691357
aF0.07692307692307693
aF0.01
aF0.06896551724137931
aF0.022900763358778626
aF0.010309278350515464
aF0.03211009174311927
aF0.022988505747126436
aF0.41454545454545455
aF0.016835016835016835
aF0.05
aF0.06896551724137931
aF0.0
aF0.03543307086614173
aF0.025423728813559324
aF0.029411764705882353
aF0.01858736059479554
aF0.04487179487179487
aF0.18834080717488788
aF0.014184397163120567
aF0.03619909502262444
aF0.07575757575757576
aF0.0335195530726257
aF0.013245033112582781
aF0.009933774834437087
aF0.06086956521739131
aF0.031578947368421054
aF0.005763688760806916
aF0.08333333333333333
aF0.04230769230769231
aF0.03942652329749104
aF0.08552631578947369
aF0.03940886699507389
aF0.01639344262295082
aF0.025
aF0.0
aF0.06622516556291391
aF0.011494252873563218
aF0.07664233576642336
aF0.008583690987124463
aF0.03873239436619718
aF0.0706713780918728
aF0.03655352480417755
aF0.07326007326007326
aF0.2146341463414634
aF0.16333333333333333
aF0.4039408866995074
aF0.03832752613240418
aF0.0041841004184100415
aF0.036036036036036036
aF0.006289308176100629
aF0.0547945205479452
aF0.02531645569620253
aF0.029411764705882353
aF0.03690036900369004
aF0.07725321888412018
aF0.28012048192771083
aF0.02631578947368421
aF0.07926829268292683
aF0.05847953216374269
aF0.17307692307692307
aF0.0380952380952381
aF0.04433497536945813
aF0.031746031746031744
aF0.12121212121212122
aF0.10820895522388059
aF0.023809523809523808
aF0.1259259259259259
aF0.12162162162162163
aF0.09042553191489362
aF0.034722222222222224
aF0.0683453237410072
aF0.054838709677419356
aF0.022950819672131147
aF0.003861003861003861
aF0.010582010582010581
aF0.06766917293233082
aF0.020833333333333332
aF0.023255813953488372
aF0.046632124352331605
aF0.04868913857677903
aF0.030042918454935622
aF0.09183673469387756
aF0.045774647887323945
aF0.11026615969581749
aF0.08053691275167785
aF0.18803418803418803
aF0.010948905109489052
aF0.5663716814159292
aF0.02054794520547945
aF0.0
aF0.102880658436214
aF0.025477707006369428
aF0.08571428571428572
aF0.010380622837370242
aF0.05277777777777778
aF0.04573170731707317
aF0.030612244897959183
aF0.0398406374501992
aF0.025
aF0.16182572614107885
aF0.024096385542168676
aF0.11235955056179775
aF0.07665505226480836
aF0.056666666666666664
aF0.06463878326996197
aF0.017857142857142856
aF0.04827586206896552
aF0.15584415584415584
aF0.05652173913043478
aF0.06460674157303371
aF0.15037593984962405
aF0.07207207207207207
aF0.07476635514018691
aF0.0035842293906810036
aF0.07555555555555556
aF0.007462686567164179
aF0.05970149253731343
aF0.03015075376884422
aF0.01509433962264151
aF0.01060070671378092
aF0.047619047619047616
aF0.06278026905829596
aF0.049773755656108594
aF0.02564102564102564
aF0.008032128514056224
aF0.09655172413793103
aF0.018315018315018316
aF0.014423076923076924
aF0.0078125
aF0.003278688524590164
aF0.07177033492822966
aF0.1206896551724138
aF0.018518518518518517
aF0.0390625
aF0.11462450592885376
aF0.1188118811881188
aF0.06690140845070422
aF0.0456140350877193
aF0.007633587786259542
aF0.03560830860534125
aF0.06030150753768844
aF0.07746478873239436
aF0.009523809523809525
aF0.0036900369003690036
aF0.011152416356877323
aF0.03529411764705882
aF0.05102040816326531
aF0.15100671140939598
aF0.04316546762589928
aF0.01098901098901099
aF0.11490683229813664
aF0.0641025641025641
aF0.00881057268722467
aF0.017595307917888565
aF0.017241379310344827
aF0.026717557251908396
aF0.0033222591362126247
aF0.01593625498007968
aF0.024390243902439025
aF0.023255813953488372
aF0.047058823529411764
aF0.08746355685131195
aF0.08445945945945946
aF0.03942652329749104
aF0.07563025210084033
aF0.014124293785310734
aF0.025157232704402517
aF0.013054830287206266
aF0.0032679738562091504
aF0.025089605734767026
aF0.010452961672473868
aF0.006622516556291391
aF0.012944983818770227
aF0.012345679012345678
aF0.04417670682730924
aF0.0291005291005291
aF0.01652892561983471
aF0.056666666666666664
aF0.09545454545454546
aF0.021367521367521368
aF0.016129032258064516
aF0.13580246913580246
aF0.08936170212765958
aF0.0627177700348432
aF0.05625
aF0.09090909090909091
aF0.06382978723404255
aF0.025423728813559324
aF0.0220125786163522
aF0.056666666666666664
aF0.08496732026143791
aF0.04
aF0.0514018691588785
aF0.0
aF0.025157232704402517
aF0.056
aF0.007692307692307693
aF0.032362459546925564
aF0.010309278350515464
aF0.484375
aF0.08461538461538462
aF0.004219409282700422
aF0.10638297872340426
aF0.053691275167785234
aF0.08022922636103152
aF0.11857707509881422
aF0.1276595744680851
aF0.06542056074766354
aF0.043795620437956206
aF0.04878048780487805
aF0.09163346613545817
aF0.00392156862745098
aF0.03187250996015936
aF0.01020408163265306
aF0.020833333333333332
aF0.05921052631578947
aF0.08812260536398467
aF0.03048780487804878
aF0.058394160583941604
aF0.0
aF0.1285140562248996
aF0.017094017094017096
aF0.0064516129032258064
aF0.08201892744479496
aF0.06532663316582915
aF0.15246636771300448
aF0.04736842105263158
aF0.06334841628959276
aF0.027777777777777776
aF0.050359712230215826
aF0.04666666666666667
aF0.09967845659163987
aF0.058823529411764705
aF0.04748603351955307
aF0.059880239520958084
aF0.04184100418410042
aF0.03015075376884422
aF0.01567398119122257
aF0.023076923076923078
aF0.013029315960912053
aF0.04924242424242424
aF0.0
aF0.026845637583892617
aF0.06607929515418502
aF0.04956268221574344
aF0.03459119496855346
aF0.0429042904290429
aF0.045283018867924525
aF0.09126984126984126
aF0.03690036900369004
aF0.02147239263803681
aF0.06405693950177936
aF0.03461538461538462
aF0.13580246913580246
aF0.04316546762589928
aF0.03492063492063492
aF0.03137254901960784
aF0.03618421052631579
aF0.08974358974358974
aF0.04779411764705882
aF0.024242424242424242
aF0.05863192182410423
aF0.06995884773662552
aF0.016574585635359115
aF0.24031007751937986
aF0.11507936507936507
aF0.0996309963099631
aF0.017857142857142856
aF0.10606060606060606
aF0.20192307692307693
aF0.013333333333333334
aF0.006578947368421052
aF0.2037914691943128
aF0.00819672131147541
aF0.016129032258064516
aF0.054187192118226604
aF0.035398230088495575
aF0.10512820512820513
aF0.16176470588235295
aF0.013888888888888888
aF0.04304635761589404
aF0.06349206349206349
aF0.03571428571428571
aF0.08424908424908426
aF0.030959752321981424
aF0.1553030303030303
aF0.06422018348623854
aF0.010309278350515464
aF0.11464968152866242
aF0.00390625
aF0.11158798283261803
aF0.046511627906976744
aF0.01486988847583643
aF0.024128686327077747
aF0.07017543859649122
aF0.026865671641791045
aF0.025179856115107913
aF0.031545741324921134
aF0.08527131782945736
aF0.033582089552238806
aF0.013966480446927373
aF0.03383458646616541
aF0.14225941422594143
aF0.0
aF0.013761467889908258
aF0.0658682634730539
aF0.06463878326996197
aF0.1191919191919192
aF0.076158940397351
aF0.008928571428571428
aF0.04697986577181208
aF0.046875
aF0.024054982817869417
aF0.03374233128834356
aF0.0223463687150838
aF0.03103448275862069
aF0.03125
aF0.025936599423631124
aF0.028391167192429023
aF0.010498687664041995
aF0.05970149253731343
aF0.045454545454545456
aF0.0625
aF0.1284722222222222
aF0.025925925925925925
aF0.027692307692307693
aF0.040740740740740744
aF0.16744186046511628
aF0.02973977695167286
aF0.03717472118959108
aF0.05757575757575758
aF0.01171875
aF0.039735099337748346
aF0.03076923076923077
aF0.03142857142857143
aF0.020942408376963352
aF0.0
aF0.051181102362204724
aF0.08305647840531562
aF0.008955223880597015
aF0.07462686567164178
aF0.046511627906976744
aF0.0
aF0.07027027027027027
aF0.03773584905660377
aF0.9183673469387755
aF0.023728813559322035
aF0.02030456852791878
aF0.0694006309148265
aF0.02005730659025788
aF0.008695652173913044
aF0.0
aF0.014035087719298246
aF0.012461059190031152
aF0.0
aF0.02127659574468085
aF0.058823529411764705
aF0.02127659574468085
aF0.06220095693779904
aF0.12595419847328243
aF0.050314465408805034
aF0.01092896174863388
aF0.08695652173913043
aF0.032679738562091505
aF0.016666666666666666
aF0.03524229074889868
aF0.04895104895104895
aF0.02158273381294964
aF0.017699115044247787
aF0.11836734693877551
aF0.016025641025641024
aF0.030612244897959183
aF0.8459302325581395
aF0.05761316872427984
aF0.03910614525139665
aF0.0321285140562249
aF0.012944983818770227
aF0.06086956521739131
aF0.006896551724137931
aF0.013245033112582781
aF0.1423611111111111
aF0.09289617486338798
aF0.06278026905829596
aF0.03717472118959108
aF0.024154589371980676
aF0.006134969325153374
aF0.05263157894736842
aF0.041474654377880185
aF0.0211864406779661
aF0.13513513513513514
aF0.05345911949685535
aF0.0
aF0.07168458781362007
aF0.014705882352941176
aF0.064
aF0.23193916349809887
aF0.16793893129770993
aF0.2631578947368421
aF0.1044776119402985
aF0.15544041450777202
aF0.048109965635738834
aF0.028708133971291867
aF0.007142857142857143
aF0.01694915254237288
aF0.06086956521739131
aF0.0029940119760479044
aF0.04794520547945205
aF0.01935483870967742
aF0.04956268221574344
aF0.02197802197802198
aF0.07507507507507508
aF0.16835016835016836
aF0.18867924528301888
aF0.024844720496894408
aF0.04597701149425287
aF0.07488986784140969
aF0.0
aF0.020080321285140562
aF0.024096385542168676
aF0.07407407407407407
aF0.07
aF0.03278688524590164
aF0.09302325581395349
aF0.017793594306049824
aF0.05714285714285714
aF0.035175879396984924
aF0.0364963503649635
aF0.016597510373443983
aF0.055
aF0.06920415224913495
aF0.008670520231213872
aF0.008298755186721992
aF0.02142857142857143
aF0.036734693877551024
aF0.006920415224913495
aF0.04216867469879518
aF0.08943089430894309
aF0.024390243902439025
aF0.055944055944055944
aF0.04979253112033195
aF0.05113636363636364
aF0.06164383561643835
aF0.11052631578947368
aF0.008695652173913044
aF0.15454545454545454
aF0.03501945525291829
aF0.02120141342756184
aF0.032520325203252036
aF0.0223463687150838
aF0.0
aF0.03804347826086957
aF0.21467391304347827
aF0.06691449814126393
aF0.0425531914893617
aF0.27522935779816515
aF0.036231884057971016
aF0.13293051359516617
aF0.050387596899224806
aF0.04184100418410042
aF0.1693548387096774
aF0.07352941176470588
aF0.16556291390728478
aF0.0136986301369863
aF0.037900874635568516
aF0.01098901098901099
aF0.015625
aF0.01282051282051282
aF0.03980099502487562
aF0.03314917127071823
aF0.07051282051282051
aF0.019390581717451522
aF0.07479224376731301
aF0.006097560975609756
aF0.11228070175438597
aF0.14381270903010032
aF0.056962025316455694
aF0.022900763358778626
aF0.0
aF0.0594059405940594
aF0.06461538461538462
aF0.018796992481203006
aF0.05070422535211268
aF0.10119047619047619
aF0.05806451612903226
aF0.06593406593406594
aF0.024024024024024024
aF0.003134796238244514
aF0.07547169811320754
aF0.1424581005586592
aF0.04938271604938271
aF0.11971830985915492
aF0.05220883534136546
aF0.09549071618037135
aF0.009615384615384616
aF0.02097902097902098
aF0.040983606557377046
aF0.06289308176100629
aF0.022388059701492536
aF0.06666666666666667
aF0.04672897196261682
aF0.0641025641025641
aF0.024691358024691357
aF0.014925373134328358
aF0.02359882005899705
aF0.0044444444444444444
aF0.0045871559633027525
aF0.028070175438596492
aF0.0391304347826087
aF0.021148036253776436
aF0.004405286343612335
aF0.0
aF0.009708737864077669
aF0.012987012987012988
aF0.22866894197952217
aF0.04332129963898917
aF0.011428571428571429
aF0.006329113924050633
aF0.015789473684210527
aF0.059322033898305086
aF0.012121212121212121
aF0.016666666666666666
aF0.05454545454545454
aF0.015748031496062992
aF0.06302521008403361
aF0.029411764705882353
aF0.04938271604938271
aF0.013888888888888888
aF0.04156479217603912
aF0.0
aF0.04487179487179487
aF0.042071197411003236
aF0.011764705882352941
a.