(lp0
F0.2905982905982906
aF0.14285714285714285
aF0.04664723032069971
aF0.04326923076923077
aF0.024054982817869417
aF0.1864406779661017
aF0.024242424242424242
aF0.08383233532934131
aF0.11548556430446194
aF0.05825242718446602
aF0.148014440433213
aF0.18269230769230768
aF0.3235294117647059
aF0.047619047619047616
aF0.12350597609561753
aF0.23893805309734514
aF0.2345679012345679
aF0.2488479262672811
aF0.03626943005181347
aF0.1276595744680851
aF0.08201892744479496
aF0.044897959183673466
aF0.09935897435897435
aF0.016891891891891893
aF0.6415094339622641
aF0.025423728813559324
aF0.05921052631578947
aF0.1329479768786127
aF0.035211267605633804
aF0.06589147286821706
aF0.011764705882352941
aF0.019083969465648856
aF0.03767123287671233
aF0.17959183673469387
aF0.042682926829268296
aF0.14285714285714285
aF0.09836065573770492
aF0.3269230769230769
aF0.19680851063829788
aF0.05
aF0.013888888888888888
aF0.045584045584045586
aF0.10884353741496598
aF0.1111111111111111
aF0.044
aF0.013123359580052493
aF0.022058823529411766
aF0.10294117647058823
aF0.0182648401826484
aF0.023474178403755867
aF0.0462046204620462
aF0.03389830508474576
aF0.006711409395973154
aF0.1375
aF0.004694835680751174
aF0.1015625
aF1.1923076923076923
aF0.04666666666666667
aF0.09268292682926829
aF0.10714285714285714
aF0.05511811023622047
aF0.019672131147540985
aF0.12440191387559808
aF0.16887417218543047
aF0.05947955390334572
aF0.3076923076923077
aF0.034482758620689655
aF0.08239700374531835
aF0.038869257950530034
aF0.14696485623003194
aF0.11811023622047244
aF0.027607361963190184
aF0.05063291139240506
aF0.10619469026548672
aF0.03260869565217391
aF0.1276595744680851
aF0.12569832402234637
aF0.007407407407407408
aF0.05501618122977346
aF0.09278350515463918
aF0.013289036544850499
aF0.19004524886877827
aF0.1111111111111111
aF0.12698412698412698
aF0.06018518518518518
aF0.09811320754716982
aF0.10843373493975904
aF0.023529411764705882
aF0.11428571428571428
aF0.07692307692307693
aF0.1618705035971223
aF0.13157894736842105
aF0.05787781350482315
aF0.032
aF0.18028169014084508
aF0.02909090909090909
aF0.04065040650406504
aF0.05188679245283019
aF0.03728813559322034
aF0.022727272727272728
aF0.09285714285714286
aF0.16715542521994134
aF0.22764227642276422
aF0.040123456790123455
aF0.16842105263157894
aF0.024024024024024024
aF0.08571428571428572
aF0.0576271186440678
aF0.11244979919678715
aF0.20599250936329588
aF0.054441260744985676
aF0.040123456790123455
aF0.034722222222222224
aF0.0823045267489712
aF0.11437908496732026
aF0.013605442176870748
aF0.031088082901554404
aF0.06756756756756757
aF0.017241379310344827
aF0.07168458781362007
aF0.06944444444444445
aF0.07476635514018691
aF0.04774535809018567
aF0.011494252873563218
aF0.08171206225680934
aF0.17937219730941703
aF0.16494845360824742
aF0.030612244897959183
aF0.669683257918552
aF0.03169014084507042
aF0.10526315789473684
aF0.02197802197802198
aF0.034383954154727794
aF0.016339869281045753
aF0.0243161094224924
aF0.043689320388349516
aF0.03571428571428571
aF0.025280898876404494
aF0.030864197530864196
aF0.03214285714285714
aF0.0954356846473029
aF0.164
aF0.07168458781362007
aF0.07929515418502203
aF0.040880503144654086
aF0.05138339920948617
aF0.022813688212927757
aF0.08333333333333333
aF0.07339449541284404
aF0.040983606557377046
aF0.07482993197278912
aF0.026525198938992044
aF0.10115606936416185
aF0.2857142857142857
aF0.026717557251908396
aF0.026058631921824105
aF0.06382978723404255
aF0.0345821325648415
aF0.008
aF0.018518518518518517
aF0.07051282051282051
aF0.02
aF0.08045977011494253
aF0.04580152671755725
aF0.005154639175257732
aF0.03211009174311927
aF0.04597701149425287
aF0.64
aF0.02356902356902357
aF0.04375
aF0.109717868338558
aF0.0024449877750611247
aF0.047244094488188976
aF0.0635593220338983
aF0.0392156862745098
aF0.03345724907063197
aF0.07692307692307693
aF0.3811659192825112
aF0.028368794326241134
aF0.058823529411764705
aF0.11363636363636363
aF0.03910614525139665
aF0.009933774834437087
aF0.019867549668874173
aF0.11014492753623188
aF0.06315789473684211
aF0.002881844380403458
aF0.2976190476190476
aF0.04230769230769231
aF0.05734767025089606
aF0.09210526315789473
aF0.04926108374384237
aF0.022950819672131147
aF0.04
aF0.007246376811594203
aF0.052980132450331126
aF0.01532567049808429
aF0.11313868613138686
aF0.012875536480686695
aF0.03169014084507042
aF0.07773851590106007
aF0.033942558746736295
aF0.08791208791208792
aF0.36585365853658536
aF0.35333333333333333
aF0.9655172413793104
aF0.07317073170731707
aF0.0041841004184100415
aF0.036036036036036036
aF0.0220125786163522
aF0.091324200913242
aF0.07278481012658228
aF0.058823529411764705
aF0.04797047970479705
aF0.09012875536480687
aF0.3825301204819277
aF0.03383458646616541
aF0.08536585365853659
aF0.08771929824561403
aF0.23076923076923078
aF0.06666666666666667
aF0.06403940886699508
aF0.031746031746031744
aF0.24242424242424243
aF0.13805970149253732
aF0.02976190476190476
aF0.21481481481481482
aF0.12162162162162163
aF0.1702127659574468
aF0.06597222222222222
aF0.14028776978417265
aF0.05806451612903226
aF0.04262295081967213
aF0.007722007722007722
aF0.010582010582010581
aF0.10526315789473684
aF0.03125
aF0.023255813953488372
aF0.046632124352331605
aF0.056179775280898875
aF0.034334763948497854
aF0.09183673469387756
aF0.07394366197183098
aF0.11026615969581749
aF0.10738255033557047
aF0.26495726495726496
aF0.014598540145985401
aF0.9292035398230089
aF0.02054794520547945
aF0.07766990291262135
aF0.205761316872428
aF0.044585987261146494
aF0.10714285714285714
aF0.01384083044982699
aF0.06666666666666667
aF0.10060975609756098
aF0.04081632653061224
aF0.04780876494023904
aF0.058333333333333334
aF0.23236514522821577
aF0.03614457831325301
aF0.17228464419475656
aF0.08710801393728224
aF0.06333333333333334
aF0.09125475285171103
aF0.02142857142857143
aF0.05517241379310345
aF0.2077922077922078
aF0.1
aF0.08146067415730338
aF0.45864661654135336
aF0.1036036036036036
aF0.14018691588785046
aF0.007168458781362007
aF0.1111111111111111
aF0.014925373134328358
aF0.05223880597014925
aF0.04522613065326633
aF0.01509433962264151
aF0.0176678445229682
aF0.11011904761904762
aF0.06726457399103139
aF0.06334841628959276
aF0.021367521367521368
aF0.020080321285140562
aF0.05862068965517241
aF0.02564102564102564
aF0.02403846153846154
aF0.046875
aF0.013114754098360656
aF0.0861244019138756
aF0.1724137931034483
aF0.027777777777777776
aF0.046875
aF0.15810276679841898
aF0.22442244224422442
aF0.09154929577464789
aF0.06315789473684211
aF0.007633587786259542
aF0.03857566765578635
aF0.10552763819095477
aF0.07042253521126761
aF0.025396825396825397
aF0.02214022140221402
aF0.01486988847583643
aF0.03725490196078431
aF0.08163265306122448
aF0.3422818791946309
aF0.10071942446043165
aF0.014652014652014652
aF0.07763975155279502
aF0.08974358974358974
aF0.03524229074889868
aF0.05571847507331378
aF0.05603448275862069
aF0.04198473282442748
aF0.013289036544850499
aF0.0199203187250996
aF0.024390243902439025
aF0.026578073089700997
aF0.05
aF0.11661807580174927
aF0.16216216216216217
aF0.053763440860215055
aF0.13165266106442577
aF0.025423728813559324
aF0.018867924528301886
aF0.018276762402088774
aF0.0032679738562091504
aF0.02867383512544803
aF0.010452961672473868
aF0.006622516556291391
aF0.03559870550161812
aF0.021604938271604937
aF0.04417670682730924
aF0.06613756613756613
aF0.01652892561983471
aF0.07333333333333333
aF0.1409090909090909
aF0.05128205128205128
aF0.008064516129032258
aF0.19753086419753085
aF0.1829787234042553
aF0.14982578397212543
aF0.0625
aF0.13438735177865613
aF0.10638297872340426
aF0.03389830508474576
aF0.040880503144654086
aF0.043333333333333335
aF0.0915032679738562
aF0.04363636363636364
aF0.07476635514018691
aF0.0
aF0.02830188679245283
aF0.072
aF0.023076923076923078
aF0.038834951456310676
aF0.005154639175257732
aF0.734375
aF0.13076923076923078
aF0.008438818565400843
aF0.24113475177304963
aF0.09395973154362416
aF0.1318051575931232
aF0.16600790513833993
aF0.4326241134751773
aF0.09345794392523364
aF0.072992700729927
aF0.12195121951219512
aF0.16733067729083664
aF0.00784313725490196
aF0.055776892430278883
aF0.03741496598639456
aF0.016666666666666666
aF0.07236842105263158
aF0.14942528735632185
aF0.04878048780487805
aF0.15328467153284672
aF0.0058823529411764705
aF0.1686746987951807
aF0.014245014245014245
aF0.0064516129032258064
aF0.11356466876971609
aF0.09547738693467336
aF0.19730941704035873
aF0.06842105263157895
aF0.06334841628959276
aF0.041666666666666664
aF0.03597122302158273
aF0.07333333333333333
aF0.12218649517684887
aF0.07352941176470588
aF0.05307262569832402
aF0.11976047904191617
aF0.04184100418410042
aF0.035175879396984924
aF0.0438871473354232
aF0.023076923076923078
aF0.029315960912052116
aF0.07575757575757576
aF0.0
aF0.0436241610738255
aF0.05726872246696035
aF0.09620991253644315
aF0.07232704402515723
aF0.07260726072607261
aF0.1018867924528302
aF0.13095238095238096
aF0.05904059040590406
aF0.02147239263803681
aF0.08540925266903915
aF0.06538461538461539
aF0.18209876543209877
aF0.04316546762589928
aF0.044444444444444446
aF0.03529411764705882
aF0.05263157894736842
aF0.10683760683760683
aF0.06985294117647059
aF0.06060606060606061
aF0.0749185667752443
aF0.11934156378600823
aF0.027624309392265192
aF0.35658914728682173
aF0.2222222222222222
aF0.1918819188191882
aF0.026785714285714284
aF0.1717171717171717
aF0.5528846153846154
aF0.013333333333333334
aF0.006578947368421052
aF0.33175355450236965
aF0.00819672131147541
aF0.01935483870967742
aF0.03940886699507389
aF0.061946902654867256
aF0.23333333333333334
aF0.31862745098039214
aF0.020833333333333332
aF0.046357615894039736
aF0.07142857142857142
aF0.045454545454545456
aF0.07326007326007326
aF0.08359133126934984
aF0.24242424242424243
aF0.08256880733944955
aF0.010309278350515464
aF0.2229299363057325
aF0.0234375
aF0.1459227467811159
aF0.06511627906976744
aF0.05204460966542751
aF0.05361930294906166
aF0.10526315789473684
aF0.03283582089552239
aF0.02158273381294964
aF0.04416403785488959
aF0.17054263565891473
aF0.048507462686567165
aF0.04748603351955307
aF0.03759398496240601
aF0.2384937238493724
aF0.009174311926605505
aF0.020642201834862386
aF0.10179640718562874
aF0.09885931558935361
aF0.31717171717171716
aF0.08609271523178808
aF0.044642857142857144
aF0.0738255033557047
aF0.0859375
aF0.030927835051546393
aF0.03067484662576687
aF0.0446927374301676
aF0.06896551724137931
aF0.048295454545454544
aF0.025936599423631124
aF0.03470031545741325
aF0.026246719160104987
aF0.07462686567164178
aF0.04132231404958678
aF0.0875
aF0.16666666666666666
aF0.05555555555555555
aF0.036923076923076927
aF0.05555555555555555
aF0.20465116279069767
aF0.022304832713754646
aF0.05204460966542751
aF0.08787878787878788
aF0.0234375
aF0.046357615894039736
aF0.07692307692307693
aF0.06
aF0.05759162303664921
aF0.015228426395939087
aF0.06692913385826772
aF0.17275747508305647
aF0.01791044776119403
aF0.15671641791044777
aF0.046511627906976744
aF0.0
aF0.0972972972972973
aF0.045283018867924525
aF1.1224489795918366
aF0.023728813559322035
aF0.05583756345177665
aF0.08517350157728706
aF0.045845272206303724
aF0.02608695652173913
aF0.0
aF0.03508771929824561
aF0.012461059190031152
aF0.002777777777777778
aF0.0182370820668693
aF0.04201680672268908
aF0.04964539007092199
aF0.09569377990430622
aF0.17557251908396945
aF0.018867924528301886
aF0.01092896174863388
aF0.10869565217391304
aF0.032679738562091505
aF0.02666666666666667
aF0.05726872246696035
aF0.06293706293706294
aF0.02877697841726619
aF0.02064896755162242
aF0.24081632653061225
aF0.022435897435897436
aF0.061224489795918366
aF1.430232558139535
aF0.09876543209876543
aF0.05027932960893855
aF0.05622489959839357
aF0.022653721682847898
aF0.07246376811594203
aF0.006896551724137931
aF0.026490066225165563
aF0.18055555555555555
aF0.14207650273224043
aF0.13452914798206278
aF0.048327137546468404
aF0.06763285024154589
aF0.012269938650306749
aF0.06766917293233082
aF0.05069124423963134
aF0.03389830508474576
aF0.17374517374517376
aF0.07232704402515723
aF0.0
aF0.12544802867383512
aF0.014705882352941176
aF0.084
aF0.5019011406844106
aF0.2010178117048346
aF0.3724696356275304
aF0.1890547263681592
aF0.20984455958549222
aF0.061855670103092786
aF0.12440191387559808
aF0.014285714285714285
aF0.03389830508474576
aF0.07246376811594203
aF0.011976047904191617
aF0.1095890410958904
aF0.012903225806451613
aF0.07580174927113703
aF0.029304029304029304
aF0.0990990990990991
aF0.2255892255892256
aF0.26037735849056604
aF0.08074534161490683
aF0.06130268199233716
aF0.06607929515418502
aF0.007272727272727273
aF0.03614457831325301
aF0.05421686746987952
aF0.11481481481481481
aF0.085
aF0.06557377049180328
aF0.09302325581395349
aF0.042704626334519574
aF0.06285714285714286
aF0.04020100502512563
aF0.043795620437956206
aF0.012448132780082987
aF0.115
aF0.09342560553633218
aF0.011560693641618497
aF0.024896265560165973
aF0.025
aF0.0653061224489796
aF0.0034602076124567475
aF0.03614457831325301
aF0.16260162601626016
aF0.08536585365853659
aF0.09090909090909091
aF0.03319502074688797
aF0.05113636363636364
aF0.0821917808219178
aF0.19473684210526315
aF0.02608695652173913
aF0.2909090909090909
aF0.07003891050583658
aF0.038869257950530034
aF0.028455284552845527
aF0.0446927374301676
aF0.0
aF0.03260869565217391
aF0.33695652173913043
aF0.06691449814126393
aF0.09219858156028368
aF0.6024464831804281
aF0.043478260869565216
aF0.1661631419939577
aF0.07751937984496124
aF0.05439330543933055
aF0.15725806451612903
aF0.09558823529411764
aF0.33774834437086093
aF0.0228310502283105
aF0.04664723032069971
aF0.019230769230769232
aF0.034375
aF0.03418803418803419
aF0.05970149253731343
aF0.03591160220994475
aF0.09935897435897435
aF0.027700831024930747
aF0.10803324099722991
aF0.006097560975609756
aF0.1649122807017544
aF0.24749163879598662
aF0.07911392405063292
aF0.030534351145038167
aF0.0070921985815602835
aF0.0891089108910891
aF0.13230769230769232
aF0.03383458646616541
aF0.09295774647887324
aF0.07142857142857142
aF0.07096774193548387
aF0.06043956043956044
aF0.024024024024024024
aF0.009404388714733543
aF0.13962264150943396
aF0.1424581005586592
aF0.16049382716049382
aF0.19014084507042253
aF0.08433734939759036
aF0.2493368700265252
aF0.022435897435897436
aF0.038461538461538464
aF0.036885245901639344
aF0.14150943396226415
aF0.014925373134328358
aF0.09473684210526316
aF0.08411214953271028
aF0.24358974358974358
aF0.018518518518518517
aF0.022388059701492536
aF0.04424778761061947
aF0.03111111111111111
aF0.01834862385321101
aF0.03508771929824561
aF0.06521739130434782
aF0.06042296072507553
aF0.030837004405286344
aF0.0
aF0.019417475728155338
aF0.006493506493506494
aF0.26621160409556316
aF0.05415162454873646
aF0.014285714285714285
aF0.0379746835443038
aF0.015789473684210527
aF0.11016949152542373
aF0.01818181818181818
aF0.03333333333333333
aF0.045454545454545456
aF0.015748031496062992
aF0.07563025210084033
aF0.051470588235294115
aF0.04526748971193416
aF0.006944444444444444
aF0.07579462102689487
aF0.004524886877828055
aF0.060897435897435896
aF0.09385113268608414
aF0.01764705882352941
a.